target datalayout = "e-m:e-p270:32:32-p271:32:32-p272:64:64-i64:64-i128:128-f80:128-n8:16:32:64-S128"
target triple = "x86_64-pc-linux-gnu"

%struct.Type_ = type { i32, ptr, ptr, ptr, %union.anon, ptr, ptr, %union.anon.1 }
%union.anon = type { ptr }
%union.anon.1 = type { %struct.TypeFunction }
%struct.TypeFunction = type { ptr, ptr, ptr }

@.str.3 = private unnamed_addr constant [10 x i8] c"'%s' (%s)\00", align 1
@.str.4 = private unnamed_addr constant [5 x i8] c"'%s'\00", align 1

; Function Attrs: nounwind uwtable
define dso_local ptr @type_quoted_error_string(ptr noundef %0) #0 {
  %2 = alloca ptr, align 8
  %3 = alloca ptr, align 8
  store ptr %0, ptr %3, align 8
  %4 = load ptr, ptr %3, align 8
  %5 = getelementptr inbounds %struct.Type_, ptr %4, i32 0, i32 1
  %6 = load ptr, ptr %5, align 8
  %7 = load ptr, ptr %3, align 8
  %8 = icmp ne ptr %6, %7
  br i1 %8, label %9, label %17

9:                                                ; preds = %1
  %10 = load ptr, ptr %3, align 8
  %11 = call ptr @type_to_error_string(ptr noundef %10)
  %12 = load ptr, ptr %3, align 8
  %13 = getelementptr inbounds %struct.Type_, ptr %12, i32 0, i32 1
  %14 = load ptr, ptr %13, align 8
  %15 = call ptr @type_to_error_string(ptr noundef %14)
  %16 = call ptr (ptr, ...) @str_printf(ptr noundef @.str.3, ptr noundef %11, ptr noundef %15)
  store ptr %16, ptr %2, align 8
  br label %21

17:                                               ; preds = %1
  %18 = load ptr, ptr %3, align 8
  %19 = call ptr @type_to_error_string(ptr noundef %18)
  %20 = call ptr (ptr, ...) @str_printf(ptr noundef @.str.4, ptr noundef %19)
  store ptr %20, ptr %2, align 8
  br label %21

21:                                               ; preds = %17, %9
  %22 = load ptr, ptr %2, align 8
  ret ptr %22
}