; Function Attrs: nounwind uwtable
define dso_local ptr @type_quoted_error_string(ptr noundef readonly %0) local_unnamed_addr #0 {
  %2 = getelementptr inbounds i8, ptr %0, i64 8
  %3 = load ptr, ptr %2, align 8
  %.not = icmp eq ptr %3, %0
  %4 = tail call ptr @type_to_error_string(ptr noundef nonnull %0)
  br i1 %.not, label %9, label %5

5:                                                ; preds = %1
  %6 = load ptr, ptr %2, align 8
  %7 = tail call ptr @type_to_error_string(ptr noundef %6)
  %8 = tail call ptr (ptr, ...) @str_printf(ptr noundef nonnull @.str.3, ptr noundef %4, ptr noundef %7) #14
  br label %11

9:                                                ; preds = %1
  %10 = tail call ptr (ptr, ...) @str_printf(ptr noundef nonnull @.str.4, ptr noundef %4) #14
  br label %11

11:                                               ; preds = %9, %5
  %.0 = phi ptr [ %8, %5 ], [ %10, %9 ]
  ret ptr %.0
}